target datalayout = "e-m:e-p270:32:32-p271:32:32-p272:64:64-i64:64-i128:128-f80:128-n8:16:32:64-S128"
target triple = "x86_64-pc-linux-gnu"

%struct.H5_user_cb_state_t = type { %struct.H5E_user_cb_state_t }
%struct.H5E_user_cb_state_t = type { i32, %union.anon, ptr }
%union.anon = type { ptr }
%struct.H5VL_class_t = type { i32, i32, ptr, i32, i64, ptr, ptr, %struct.H5VL_info_class_t, %struct.H5VL_wrap_class_t, %struct.H5VL_attr_class_t, %struct.H5VL_dataset_class_t, %struct.H5VL_datatype_class_t, %struct.H5VL_file_class_t, %struct.H5VL_group_class_t, %struct.H5VL_link_class_t, %struct.H5VL_object_class_t, %struct.H5VL_introspect_class_t, %struct.H5VL_request_class_t, %struct.H5VL_blob_class_t, %struct.H5VL_token_class_t, ptr }
%struct.H5VL_info_class_t = type { i64, ptr, ptr, ptr, ptr, ptr }
%struct.H5VL_wrap_class_t = type { ptr, ptr, ptr, ptr, ptr }
%struct.H5VL_attr_class_t = type { ptr, ptr, ptr, ptr, ptr, ptr, ptr, ptr }
%struct.H5VL_dataset_class_t = type { ptr, ptr, ptr, ptr, ptr, ptr, ptr, ptr }
%struct.H5VL_datatype_class_t = type { ptr, ptr, ptr, ptr, ptr, ptr }
%struct.H5VL_file_class_t = type { ptr, ptr, ptr, ptr, ptr, ptr }
%struct.H5VL_group_class_t = type { ptr, ptr, ptr, ptr, ptr, ptr }
%struct.H5VL_link_class_t = type { ptr, ptr, ptr, ptr, ptr, ptr }
%struct.H5VL_object_class_t = type { ptr, ptr, ptr, ptr, ptr }
%struct.H5VL_introspect_class_t = type { ptr, ptr, ptr }
%struct.H5VL_request_class_t = type { ptr, ptr, ptr, ptr, ptr, ptr }
%struct.H5VL_blob_class_t = type { ptr, ptr, ptr, ptr }
%struct.H5VL_token_class_t = type { ptr, ptr, ptr }

@.str = private unnamed_addr constant [106 x i8] c"generated/home/dtcxzyw/WorkSpace/Projects/compilers/llvm-opt-benchmark/bench/hdf5/hdf5/src/H5VLcallback.c\00", align 1
@H5E_LIB_g = external global i64, align 8
@H5E_CANTSET_g = external global i64, align 8
@.str.2 = private unnamed_addr constant [37 x i8] c"preparation for user callback failed\00", align 1
@H5E_CANTRESTORE_g = external global i64, align 8
@H5E_VOL_g = external global i64, align 8
@H5VL_init_g = external global i8, align 1
@H5_libterm_g = external global i8, align 1
@H5E_UNSUPPORTED_g = external global i64, align 8
@H5E_CANTCREATE_g = external global i64, align 8
@.str.70 = private unnamed_addr constant [23 x i8] c"datatype commit failed\00", align 1
@__func__.H5VL__datatype_commit = private unnamed_addr constant [22 x i8] c"H5VL__datatype_commit\00", align 1
@.str.189 = private unnamed_addr constant [46 x i8] c"VOL connector has no 'datatype commit' method\00", align 1

; Function Attrs: nounwind uwtable
define internal ptr @H5VL__datatype_commit(ptr noundef %0, ptr noundef %1, ptr noundef %2, ptr noundef %3, i64 noundef %4, i64 noundef %5, i64 noundef %6, i64 noundef %7, i64 noundef %8, ptr noundef %9) #0 {
  %11 = alloca ptr, align 8
  %12 = alloca ptr, align 8
  %13 = alloca ptr, align 8
  %14 = alloca ptr, align 8
  %15 = alloca ptr, align 8
  %16 = alloca i64, align 8
  %17 = alloca i64, align 8
  %18 = alloca i64, align 8
  %19 = alloca i64, align 8
  %20 = alloca i64, align 8
  %21 = alloca ptr, align 8
  %22 = alloca ptr, align 8
  %23 = alloca i8, align 1
  %24 = alloca %struct.H5_user_cb_state_t, align 8
  %25 = alloca i32, align 4
  store ptr %0, ptr %12, align 8, !tbaa !42
  store ptr %1, ptr %13, align 8, !tbaa !60
  store ptr %2, ptr %14, align 8, !tbaa !54
  store ptr %3, ptr %15, align 8, !tbaa !50
  store i64 %4, ptr %16, align 8, !tbaa !3
  store i64 %5, ptr %17, align 8, !tbaa !3
  store i64 %6, ptr %18, align 8, !tbaa !3
  store i64 %7, ptr %19, align 8, !tbaa !3
  store i64 %8, ptr %20, align 8, !tbaa !3
  store ptr %9, ptr %21, align 8, !tbaa !42
  call void @llvm.lifetime.start.p0(i64 8, ptr %22) #8
  store ptr null, ptr %22, align 8, !tbaa !42
  call void @llvm.lifetime.start.p0(i64 1, ptr %23) #8
  store i8 0, ptr %23, align 1, !tbaa !9
  %26 = load i8, ptr @H5VL_init_g, align 1, !tbaa !9, !range !14, !noundef !15
  %27 = trunc i8 %26 to i1
  br i1 %27, label %32, label %28

28:                                               ; preds = %10
  %29 = load i8, ptr @H5_libterm_g, align 1, !tbaa !9, !range !14, !noundef !15
  %30 = trunc i8 %29 to i1
  %31 = xor i1 %30, true
  br label %32

32:                                               ; preds = %28, %10
  %33 = phi i1 [ true, %10 ], [ %31, %28 ]
  %34 = xor i1 %33, true
  %35 = xor i1 %34, true
  %36 = zext i1 %35 to i32
  %37 = sext i32 %36 to i64
  %38 = call i64 @llvm.expect.i64(i64 %37, i64 1)
  %39 = icmp ne i64 %38, 0
  br i1 %39, label %40, label %150

40:                                               ; preds = %32
  %41 = load ptr, ptr %14, align 8, !tbaa !54
  %42 = getelementptr inbounds nuw %struct.H5VL_class_t, ptr %41, i32 0, i32 11
  %43 = getelementptr inbounds nuw %struct.H5VL_datatype_class_t, ptr %42, i32 0, i32 0
  %44 = load ptr, ptr %43, align 8, !tbaa !97
  %45 = icmp eq ptr null, %44
  br i1 %45, label %46, label %65

46:                                               ; preds = %40
  br label %47

47:                                               ; preds = %46
  br label %48

48:                                               ; preds = %47
  br label %49

49:                                               ; preds = %48
  %50 = load i64, ptr @H5E_VOL_g, align 8, !tbaa !3
  %51 = load i64, ptr @H5E_UNSUPPORTED_g, align 8, !tbaa !3
  %52 = call i32 (ptr, ptr, i32, i64, i64, ptr, ...) @H5E_printf_stack(ptr noundef @.str, ptr noundef @__func__.H5VL__datatype_commit, i32 noundef 2884, i64 noundef %50, i64 noundef %51, ptr noundef @.str.189)
  br label %53

53:                                               ; preds = %49
  br label %54

54:                                               ; preds = %53
  store i8 1, ptr %23, align 1, !tbaa !9
  %55 = load i8, ptr %23, align 1, !tbaa !9, !range !14, !noundef !15
  %56 = trunc i8 %55 to i1
  %57 = zext i1 %56 to i8
  store i8 %57, ptr %23, align 1, !tbaa !9
  br label %58

58:                                               ; preds = %54
  br label %59

59:                                               ; preds = %58
  br label %60

60:                                               ; preds = %59
  store ptr null, ptr %22, align 8, !tbaa !42
  br label %149

61:                                               ; No predecessors!
  br label %62

62:                                               ; preds = %61
  br label %63

63:                                               ; preds = %62
  br label %64

64:                                               ; preds = %63
  br label %65

65:                                               ; preds = %64, %40
  call void @llvm.lifetime.start.p0(i64 24, ptr %24) #8
  %66 = call i32 @H5_user_cb_prepare(ptr noundef %24)
  %67 = icmp slt i32 %66, 0
  br i1 %67, label %68, label %87

68:                                               ; preds = %65
  br label %69

69:                                               ; preds = %68
  br label %70

70:                                               ; preds = %69
  br label %71

71:                                               ; preds = %70
  %72 = load i64, ptr @H5E_LIB_g, align 8, !tbaa !3
  %73 = load i64, ptr @H5E_CANTSET_g, align 8, !tbaa !3
  %74 = call i32 (ptr, ptr, i32, i64, i64, ptr, ...) @H5E_printf_stack(ptr noundef @.str, ptr noundef @__func__.H5VL__datatype_commit, i32 noundef 2887, i64 noundef %72, i64 noundef %73, ptr noundef @.str.2)
  br label %75

75:                                               ; preds = %71
  br label %76

76:                                               ; preds = %75
  store i8 1, ptr %23, align 1, !tbaa !9
  %77 = load i8, ptr %23, align 1, !tbaa !9, !range !14, !noundef !15
  %78 = trunc i8 %77 to i1
  %79 = zext i1 %78 to i8
  store i8 %79, ptr %23, align 1, !tbaa !9
  br label %80

80:                                               ; preds = %76
  br label %81

81:                                               ; preds = %80
  br label %82

82:                                               ; preds = %81
  store ptr null, ptr %22, align 8, !tbaa !42
  store i32 10, ptr %25, align 4
  br label %124

83:                                               ; No predecessors!
  br label %84

84:                                               ; preds = %83
  br label %85

85:                                               ; preds = %84
  br label %86

86:                                               ; preds = %85
  br label %87

87:                                               ; preds = %86, %65
  %88 = load ptr, ptr %14, align 8, !tbaa !54
  %89 = getelementptr inbounds nuw %struct.H5VL_class_t, ptr %88, i32 0, i32 11
  %90 = getelementptr inbounds nuw %struct.H5VL_datatype_class_t, ptr %89, i32 0, i32 0
  %91 = load ptr, ptr %90, align 8, !tbaa !97
  %92 = load ptr, ptr %12, align 8, !tbaa !42
  %93 = load ptr, ptr %13, align 8, !tbaa !60
  %94 = load ptr, ptr %15, align 8, !tbaa !50
  %95 = load i64, ptr %16, align 8, !tbaa !3
  %96 = load i64, ptr %17, align 8, !tbaa !3
  %97 = load i64, ptr %18, align 8, !tbaa !3
  %98 = load i64, ptr %19, align 8, !tbaa !3
  %99 = load i64, ptr %20, align 8, !tbaa !3
  %100 = load ptr, ptr %21, align 8, !tbaa !42
  %101 = call ptr %91(ptr noundef %92, ptr noundef %93, ptr noundef %94, i64 noundef %95, i64 noundef %96, i64 noundef %97, i64 noundef %98, i64 noundef %99, ptr noundef %100)
  store ptr %101, ptr %22, align 8, !tbaa !42
  %102 = call i32 @H5_user_cb_restore(ptr noundef %24)
  %103 = icmp slt i32 %102, 0
  br i1 %103, label %104, label %123

104:                                              ; preds = %87
  br label %105

105:                                              ; preds = %104
  br label %106

106:                                              ; preds = %105
  br label %107

107:                                              ; preds = %106
  %108 = load i64, ptr @H5E_LIB_g, align 8, !tbaa !3
  %109 = load i64, ptr @H5E_CANTRESTORE_g, align 8, !tbaa !3
  %110 = call i32 (ptr, ptr, i32, i64, i64, ptr, ...) @H5E_printf_stack(ptr noundef @.str, ptr noundef @__func__.H5VL__datatype_commit, i32 noundef 2893, i64 noundef %108, i64 noundef %109, ptr noundef @.str.2)
  br label %111

111:                                              ; preds = %107
  br label %112

112:                                              ; preds = %111
  store i8 1, ptr %23, align 1, !tbaa !9
  %113 = load i8, ptr %23, align 1, !tbaa !9, !range !14, !noundef !15
  %114 = trunc i8 %113 to i1
  %115 = zext i1 %114 to i8
  store i8 %115, ptr %23, align 1, !tbaa !9
  br label %116

116:                                              ; preds = %112
  br label %117

117:                                              ; preds = %116
  br label %118

118:                                              ; preds = %117
  store ptr null, ptr %22, align 8, !tbaa !42
  store i32 10, ptr %25, align 4
  br label %124

119:                                              ; No predecessors!
  br label %120

120:                                              ; preds = %119
  br label %121

121:                                              ; preds = %120
  br label %122

122:                                              ; preds = %121
  br label %123

123:                                              ; preds = %122, %87
  store i32 0, ptr %25, align 4
  br label %124

124:                                              ; preds = %118, %82, %123
  call void @llvm.lifetime.end.p0(i64 24, ptr %24) #8
  %125 = load i32, ptr %25, align 4
  switch i32 %125, label %152 [
    i32 0, label %126
    i32 10, label %149
  ]

126:                                              ; preds = %124
  %127 = load ptr, ptr %22, align 8, !tbaa !42
  %128 = icmp eq ptr null, %127
  br i1 %128, label %129, label %148

129:                                              ; preds = %126
  br label %130

130:                                              ; preds = %129
  br label %131

131:                                              ; preds = %130
  br label %132

132:                                              ; preds = %131
  %133 = load i64, ptr @H5E_VOL_g, align 8, !tbaa !3
  %134 = load i64, ptr @H5E_CANTCREATE_g, align 8, !tbaa !3
  %135 = call i32 (ptr, ptr, i32, i64, i64, ptr, ...) @H5E_printf_stack(ptr noundef @.str, ptr noundef @__func__.H5VL__datatype_commit, i32 noundef 2895, i64 noundef %133, i64 noundef %134, ptr noundef @.str.70)
  br label %136

136:                                              ; preds = %132
  br label %137

137:                                              ; preds = %136
  store i8 1, ptr %23, align 1, !tbaa !9
  %138 = load i8, ptr %23, align 1, !tbaa !9, !range !14, !noundef !15
  %139 = trunc i8 %138 to i1
  %140 = zext i1 %139 to i8
  store i8 %140, ptr %23, align 1, !tbaa !9
  br label %141

141:                                              ; preds = %137
  br label %142

142:                                              ; preds = %141
  br label %143

143:                                              ; preds = %142
  store ptr null, ptr %22, align 8, !tbaa !42
  br label %149

144:                                              ; No predecessors!
  br label %145

145:                                              ; preds = %144
  br label %146

146:                                              ; preds = %145
  br label %147

147:                                              ; preds = %146
  br label %148

148:                                              ; preds = %147, %126
  br label %149

149:                                              ; preds = %148, %124, %143, %60
  br label %150

150:                                              ; preds = %149, %32
  %151 = load ptr, ptr %22, align 8, !tbaa !42
  store ptr %151, ptr %11, align 8
  store i32 1, ptr %25, align 4
  br label %152

152:                                              ; preds = %150, %124
  call void @llvm.lifetime.end.p0(i64 1, ptr %23) #8
  call void @llvm.lifetime.end.p0(i64 8, ptr %22) #8
  %153 = load ptr, ptr %11, align 8
  ret ptr %153
}